	.attribute	4, 16
	.attribute	5, "rv64i2p1_m2p0_a2p1_f2p2_d2p2_c2p0_b1p0_v1p0_zic64b1p0_zicbom1p0_zicbop1p0_zicboz1p0_ziccamoa1p0_ziccif1p0_zicclsm1p0_ziccrse1p0_zicntr2p0_zicond1p0_zicsr2p0_zihintntl1p0_zihintpause2p0_zihpm2p0_zimop1p0_zmmul1p0_za64rs1p0_zaamo1p0_zalrsc1p0_zawrs1p0_zfa1p0_zfhmin1p0_zca1p0_zcb1p0_zcd1p0_zcmop1p0_zba1p0_zbb1p0_zbs1p0_zkt1p0_zvbb1p0_zve32f1p0_zve32x1p0_zve64d1p0_zve64f1p0_zve64x1p0_zvfhmin1p0_zvkb1p0_zvkt1p0_zvl1024b1p0_zvl128b1p0_zvl2048b1p0_zvl256b1p0_zvl32b1p0_zvl4096b1p0_zvl512b1p0_zvl64b1p0_supm1p0"
	.file	"aos_reduce_sum_i64.c"
	.section	.rodata.cst8,"aM",@progbits,8
	.p2align	3, 0x0                          # -- Begin function aos_reduce_sum_i64
.LCPI0_0:
	.quad	2323999253380730912             # 0x2040810204081020
.LCPI0_1:
	.quad	4647998506761461824             # 0x4081020408102040
.LCPI0_4:
	.quad	580999813345182728              # 0x810204081020408
	.section	.rodata,"a",@progbits
	.p2align	8, 0x0
.LCPI0_2:
	.zero	2
	.zero	2
	.zero	2
	.zero	2
	.zero	2
	.zero	2
	.zero	2
	.zero	2
	.zero	2
	.zero	2
	.zero	2
	.zero	2
	.zero	2
	.zero	2
	.zero	2
	.zero	2
	.zero	2
	.zero	2
	.zero	2
	.zero	2
	.zero	2
	.zero	2
	.zero	2
	.zero	2
	.zero	2
	.zero	2
	.zero	2
	.zero	2
	.zero	2
	.zero	2
	.zero	2
	.zero	2
	.zero	2
	.zero	2
	.zero	2
	.zero	2
	.zero	2
	.zero	2
	.zero	2
	.zero	2
	.zero	2
	.zero	2
	.zero	2
	.zero	2
	.zero	2
	.zero	2
	.zero	2
	.zero	2
	.zero	2
	.zero	2
	.zero	2
	.zero	2
	.zero	2
	.zero	2
	.zero	2
	.zero	2
	.zero	2
	.zero	2
	.zero	2
	.zero	2
	.zero	2
	.zero	2
	.zero	2
	.zero	2
	.zero	2
	.zero	2
	.zero	2
	.zero	2
	.zero	2
	.zero	2
	.zero	2
	.zero	2
	.zero	2
	.zero	2
	.half	6                               # 0x6
	.half	13                              # 0xd
	.half	20                              # 0x14
	.half	27                              # 0x1b
	.half	34                              # 0x22
	.half	41                              # 0x29
	.half	48                              # 0x30
	.half	55                              # 0x37
	.half	62                              # 0x3e
	.half	69                              # 0x45
	.half	76                              # 0x4c
	.half	83                              # 0x53
	.half	90                              # 0x5a
	.half	97                              # 0x61
	.half	104                             # 0x68
	.half	111                             # 0x6f
	.half	118                             # 0x76
	.half	125                             # 0x7d
	.half	4                               # 0x4
	.half	11                              # 0xb
	.half	18                              # 0x12
	.half	25                              # 0x19
	.half	32                              # 0x20
	.half	39                              # 0x27
	.half	46                              # 0x2e
	.half	53                              # 0x35
	.half	60                              # 0x3c
	.half	67                              # 0x43
	.half	74                              # 0x4a
	.half	81                              # 0x51
	.half	88                              # 0x58
	.half	95                              # 0x5f
	.half	102                             # 0x66
	.half	109                             # 0x6d
	.half	116                             # 0x74
	.half	123                             # 0x7b
	.zero	2
	.zero	2
	.zero	2
	.zero	2
	.zero	2
	.zero	2
	.zero	2
	.zero	2
	.zero	2
	.zero	2
	.zero	2
	.zero	2
	.zero	2
	.zero	2
	.zero	2
	.zero	2
	.zero	2
	.zero	2
.LCPI0_3:
	.zero	2
	.zero	2
	.zero	2
	.zero	2
	.zero	2
	.zero	2
	.zero	2
	.zero	2
	.zero	2
	.zero	2
	.zero	2
	.zero	2
	.zero	2
	.zero	2
	.zero	2
	.zero	2
	.zero	2
	.zero	2
	.zero	2
	.zero	2
	.zero	2
	.zero	2
	.zero	2
	.zero	2
	.zero	2
	.zero	2
	.zero	2
	.zero	2
	.zero	2
	.zero	2
	.zero	2
	.zero	2
	.zero	2
	.zero	2
	.zero	2
	.zero	2
	.zero	2
	.zero	2
	.zero	2
	.zero	2
	.zero	2
	.zero	2
	.zero	2
	.zero	2
	.zero	2
	.zero	2
	.zero	2
	.zero	2
	.zero	2
	.zero	2
	.zero	2
	.zero	2
	.zero	2
	.zero	2
	.zero	2
	.zero	2
	.zero	2
	.zero	2
	.zero	2
	.zero	2
	.zero	2
	.zero	2
	.zero	2
	.zero	2
	.zero	2
	.zero	2
	.zero	2
	.zero	2
	.zero	2
	.zero	2
	.zero	2
	.zero	2
	.zero	2
	.zero	2
	.zero	2
	.zero	2
	.zero	2
	.zero	2
	.zero	2
	.zero	2
	.zero	2
	.zero	2
	.zero	2
	.zero	2
	.zero	2
	.zero	2
	.zero	2
	.zero	2
	.zero	2
	.zero	2
	.zero	2
	.zero	2
	.zero	2
	.zero	2
	.zero	2
	.zero	2
	.zero	2
	.zero	2
	.zero	2
	.zero	2
	.zero	2
	.zero	2
	.zero	2
	.zero	2
	.zero	2
	.zero	2
	.zero	2
	.zero	2
	.zero	2
	.zero	2
	.half	2                               # 0x2
	.half	9                               # 0x9
	.half	16                              # 0x10
	.half	23                              # 0x17
	.half	30                              # 0x1e
	.half	37                              # 0x25
	.half	44                              # 0x2c
	.half	51                              # 0x33
	.half	58                              # 0x3a
	.half	65                              # 0x41
	.half	72                              # 0x48
	.half	79                              # 0x4f
	.half	86                              # 0x56
	.half	93                              # 0x5d
	.half	100                             # 0x64
	.half	107                             # 0x6b
	.half	114                             # 0x72
	.half	121                             # 0x79
.LCPI0_5:
	.zero	2
	.zero	2
	.zero	2
	.zero	2
	.zero	2
	.zero	2
	.zero	2
	.zero	2
	.zero	2
	.zero	2
	.zero	2
	.zero	2
	.zero	2
	.zero	2
	.zero	2
	.zero	2
	.zero	2
	.zero	2
	.zero	2
	.zero	2
	.zero	2
	.zero	2
	.zero	2
	.zero	2
	.zero	2
	.zero	2
	.zero	2
	.zero	2
	.zero	2
	.zero	2
	.zero	2
	.zero	2
	.zero	2
	.zero	2
	.zero	2
	.zero	2
	.zero	2
	.half	3                               # 0x3
	.half	10                              # 0xa
	.half	17                              # 0x11
	.half	24                              # 0x18
	.half	31                              # 0x1f
	.half	38                              # 0x26
	.half	45                              # 0x2d
	.half	52                              # 0x34
	.half	59                              # 0x3b
	.half	66                              # 0x42
	.half	73                              # 0x49
	.half	80                              # 0x50
	.half	87                              # 0x57
	.half	94                              # 0x5e
	.half	101                             # 0x65
	.half	108                             # 0x6c
	.half	115                             # 0x73
	.half	122                             # 0x7a
	.half	1                               # 0x1
	.half	8                               # 0x8
	.half	15                              # 0xf
	.half	22                              # 0x16
	.half	29                              # 0x1d
	.half	36                              # 0x24
	.half	43                              # 0x2b
	.half	50                              # 0x32
	.half	57                              # 0x39
	.half	64                              # 0x40
	.half	71                              # 0x47
	.half	78                              # 0x4e
	.half	85                              # 0x55
	.half	92                              # 0x5c
	.half	99                              # 0x63
	.half	106                             # 0x6a
	.half	113                             # 0x71
	.half	120                             # 0x78
	.half	127                             # 0x7f
	.zero	2
	.zero	2
	.zero	2
	.zero	2
	.zero	2
	.zero	2
	.zero	2
	.zero	2
	.zero	2
	.zero	2
	.zero	2
	.zero	2
	.zero	2
	.zero	2
	.zero	2
	.zero	2
	.zero	2
	.zero	2
	.zero	2
	.zero	2
	.zero	2
	.zero	2
	.zero	2
	.zero	2
	.zero	2
	.zero	2
	.zero	2
	.zero	2
	.zero	2
	.zero	2
	.zero	2
	.zero	2
	.zero	2
	.zero	2
	.zero	2
	.zero	2
	.zero	2
	.zero	2
	.zero	2
	.zero	2
	.zero	2
	.zero	2
	.zero	2
	.zero	2
	.zero	2
	.zero	2
	.zero	2
	.zero	2
	.zero	2
	.zero	2
	.zero	2
	.zero	2
	.zero	2
	.zero	2
.LCPI0_6:
	.half	0                               # 0x0
	.half	7                               # 0x7
	.half	14                              # 0xe
	.half	21                              # 0x15
	.half	28                              # 0x1c
	.half	35                              # 0x23
	.half	42                              # 0x2a
	.half	49                              # 0x31
	.half	56                              # 0x38
	.half	63                              # 0x3f
	.half	70                              # 0x46
	.half	77                              # 0x4d
	.half	84                              # 0x54
	.half	91                              # 0x5b
	.half	98                              # 0x62
	.half	105                             # 0x69
	.half	112                             # 0x70
	.half	119                             # 0x77
	.half	126                             # 0x7e
	.half	5                               # 0x5
	.half	12                              # 0xc
	.half	19                              # 0x13
	.half	26                              # 0x1a
	.half	33                              # 0x21
	.half	40                              # 0x28
	.half	47                              # 0x2f
	.half	54                              # 0x36
	.half	61                              # 0x3d
	.half	68                              # 0x44
	.half	75                              # 0x4b
	.half	82                              # 0x52
	.half	89                              # 0x59
	.half	96                              # 0x60
	.half	103                             # 0x67
	.half	110                             # 0x6e
	.half	117                             # 0x75
	.half	124                             # 0x7c
	.zero	2
	.zero	2
	.zero	2
	.zero	2
	.zero	2
	.zero	2
	.zero	2
	.zero	2
	.zero	2
	.zero	2
	.zero	2
	.zero	2
	.zero	2
	.zero	2
	.zero	2
	.zero	2
	.zero	2
	.zero	2
	.zero	2
	.zero	2
	.zero	2
	.zero	2
	.zero	2
	.zero	2
	.zero	2
	.zero	2
	.zero	2
	.zero	2
	.zero	2
	.zero	2
	.zero	2
	.zero	2
	.zero	2
	.zero	2
	.zero	2
	.zero	2
	.zero	2
	.zero	2
	.zero	2
	.zero	2
	.zero	2
	.zero	2
	.zero	2
	.zero	2
	.zero	2
	.zero	2
	.zero	2
	.zero	2
	.zero	2
	.zero	2
	.zero	2
	.zero	2
	.zero	2
	.zero	2
	.zero	2
	.zero	2
	.zero	2
	.zero	2
	.zero	2
	.zero	2
	.zero	2
	.zero	2
	.zero	2
	.zero	2
	.zero	2
	.zero	2
	.zero	2
	.zero	2
	.zero	2
	.zero	2
	.zero	2
	.zero	2
	.zero	2
	.zero	2
	.zero	2
	.zero	2
	.zero	2
	.zero	2
	.zero	2
	.zero	2
	.zero	2
	.zero	2
	.zero	2
	.zero	2
	.zero	2
	.zero	2
	.zero	2
	.zero	2
	.zero	2
	.zero	2
	.zero	2
	.text
	.globl	aos_reduce_sum_i64
	.p2align	1
	.type	aos_reduce_sum_i64,@function
aos_reduce_sum_i64:                     # @aos_reduce_sum_i64
	.cfi_startproc
# %bb.0:                                # %entry
	beqz	a0, .LBB0_9
# %bb.1:                                # %for.body.preheader
	addi	sp, sp, -48
	.cfi_def_cfa_offset 48
	sd	s0, 40(sp)                      # 8-byte Folded Spill
	sd	s1, 32(sp)                      # 8-byte Folded Spill
	sd	s2, 24(sp)                      # 8-byte Folded Spill
	sd	s3, 16(sp)                      # 8-byte Folded Spill
	sd	s4, 8(sp)                       # 8-byte Folded Spill
	.cfi_offset s0, -8
	.cfi_offset s1, -16
	.cfi_offset s2, -24
	.cfi_offset s3, -32
	.cfi_offset s4, -40
	li	a2, 257
	zext.w	a6, a0
	bgeu	a0, a2, .LBB0_3
# %bb.2:
	li	a7, 0
	li	a0, 0
	j	.LBB0_6
.LBB0_3:                                # %vector.ph
	li	t3, 1804
	addi	s4, a1, 48
	zext.b	a3, a6
	li	a5, 256
	lui	t6, 5
	li	t5, 128
	bseti	t4, zero, 11
	li	s3, 3
	lui	t0, 1
	li	s2, 5
.Lpcrel_hi0:
	auipc	a7, %pcrel_hi(.LCPI0_0)
.Lpcrel_hi2:
	auipc	s0, %pcrel_hi(.LCPI0_2)
.Lpcrel_hi3:
	auipc	s1, %pcrel_hi(.LCPI0_3)
	czero.nez	a5, a5, a3
	or	a3, a3, a5
	li	a5, -1
	addi	s0, s0, %pcrel_lo(.Lpcrel_hi2)
	vsetvli	zero, t5, e16, mf2, ta, ma
	vle16.v	v26, (s0)
	lui	s0, 264208
	addi	s1, s1, %pcrel_lo(.Lpcrel_hi3)
	vle16.v	v27, (s1)
.Lpcrel_hi5:
	auipc	s1, %pcrel_hi(.LCPI0_5)
	slli	a5, a5, 46
	vsetivli	zero, 2, e64, m1, ta, ma
	vmv.v.x	v8, a5
	lui	a5, 66052
	addi	s1, s1, %pcrel_lo(.Lpcrel_hi5)
	vsetvli	zero, t5, e16, mf2, ta, ma
	vle16.v	v28, (s1)
.Lpcrel_hi6:
	auipc	s1, %pcrel_hi(.LCPI0_6)
	addiw	a4, s0, 516
	addiw	a2, a5, 129
	addi	s1, s1, %pcrel_lo(.Lpcrel_hi6)
	vle16.v	v29, (s1)
	slli	s0, a4, 35
	add	a4, a4, s0
	slli	a5, a2, 35
	add	a2, a2, a5
.Lpcrel_hi1:
	auipc	a5, %pcrel_hi(.LCPI0_1)
	ld	s1, %pcrel_lo(.Lpcrel_hi0)(a7)
	vsetivli	zero, 2, e64, m1, ta, ma
	vmv.v.x	v9, a4
.Lpcrel_hi4:
	auipc	a4, %pcrel_hi(.LCPI0_4)
	ld	a4, %pcrel_lo(.Lpcrel_hi4)(a4)
	vmv.v.x	v10, s1
	li	t1, 37
	ld	a5, %pcrel_lo(.Lpcrel_hi1)(a5)
	vsetvli	zero, zero, e64, m1, tu, ma
	vmv.s.x	v9, a4
	li	t2, 74
	sub	a7, a6, a3
	vsetvli	zero, zero, e64, m1, ta, ma
	vmv.v.x	v11, a5
	vsetvli	zero, zero, e64, m1, tu, ma
	vmv.s.x	v10, a5
	addi	a3, a7, -256
	srli	a3, a3, 8
	vmv.s.x	v11, a2
	slli	a2, a3, 11
	slli	a3, a3, 14
	sub	a3, a3, a2
	li	a5, 7
	sh2add	a2, t3, a1
	addiw	a4, t6, 1072
	vsetvli	zero, t5, e64, m2, ta, ma
	vmv.v.i	v12, 0
	add	a4, a4, a1
	add	t3, a3, a4
	slli	t6, s3, 10
	slli	a4, s3, 11
	slli	a3, s2, 10
	vsetvli	zero, zero, e64, m2, tu, ma
	vmv.s.x	v8, zero
	slli	a5, a5, 11
	vmv.v.i	v14, 0
.LBB0_4:                                # %vector.body
                                        # =>This Inner Loop Header: Depth=1
	vsetvli	zero, t5, e64, m2, ta, mu
	vmv1r.v	v0, v10
	addi	s0, s4, 1024
	add	s1, s4, t4
	add	a0, s4, t6
	vle64.v	v16, (s0)
	add	s0, s4, a4
	vle64.v	v18, (a0)
	add	a0, s4, a3
	vle64.v	v24, (a0)
	add	a0, s4, t0
	vle64.v	v30, (s0)
	addi	s0, a2, 1024
	vle64.v	v24, (a0), v0.t
	add	a0, a2, t6
	vle64.v	v20, (a0)
	add	a0, a2, a3
	vrgatherei16.vv	v22, v24, v26
	vmv1r.v	v0, v8
	vrgatherei16.vv	v22, v30, v27, v0.t
	vle64.v	v24, (a0)
	add	a0, a2, t4
	vmv1r.v	v0, v9
	vle64.v	v18, (s1), v0.t
	add	s1, a2, t0
	vmv1r.v	v0, v11
	vle64.v	v16, (s4), v0.t
	vmv1r.v	v0, v10
	vle64.v	v24, (s1), v0.t
	add	s1, a2, a4
	vrgatherei16.vv	v30, v18, v28
	vrgatherei16.vv	v18, v16, v29
	vsetvli	zero, t1, e64, m2, tu, ma
	vmv.v.v	v30, v18
	vsetvli	zero, t5, e64, m2, ta, ma
	vle64.v	v16, (s1)
	vsetvli	zero, t2, e64, m2, tu, ma
	vmv.v.v	v22, v30
	vsetvli	zero, t5, e64, m2, ta, mu
	vle64.v	v18, (s0)
	vrgatherei16.vv	v30, v24, v26
	vmv1r.v	v0, v8
	vrgatherei16.vv	v30, v16, v27, v0.t
	vmv1r.v	v0, v9
	vle64.v	v20, (a0), v0.t
	vmv1r.v	v0, v11
	vle64.v	v18, (a2), v0.t
	vadd.vv	v12, v22, v12
	add	a2, a2, a5
	vrgatherei16.vv	v16, v20, v28
	vrgatherei16.vv	v20, v18, v29
	vsetvli	zero, t1, e64, m2, tu, ma
	vmv.v.v	v16, v20
	vsetvli	zero, t2, e64, m2, tu, ma
	vmv.v.v	v30, v16
	vsetvli	zero, t5, e64, m2, ta, ma
	vadd.vv	v14, v30, v14
	add	s4, s4, a5
	bne	a2, t3, .LBB0_4
# %bb.5:                                # %middle.block
	li	a0, 128
	vsetvli	zero, a0, e64, m2, ta, ma
	vadd.vv	v8, v14, v12
	vmv.s.x	v10, zero
	vredsum.vs	v8, v8, v10
	vmv.x.s	a0, v8
.LBB0_6:                                # %for.body.preheader10
	slli	a2, a7, 3
	slli	a7, a7, 6
	sub	a2, a7, a2
	slli	a3, a6, 3
	slli	a6, a6, 6
	sub	a3, a6, a3
	add	a2, a2, a1
	add	a3, a3, a1
	addi	a1, a2, 48
	addi	a2, a3, 48
.LBB0_7:                                # %for.body
                                        # =>This Inner Loop Header: Depth=1
	ld	a3, 0(a1)
	addi	a1, a1, 56
	addw	a0, a0, a3
	bne	a1, a2, .LBB0_7
# %bb.8:                                # %for.cond.cleanup.loopexit
	ld	s0, 40(sp)                      # 8-byte Folded Reload
	ld	s1, 32(sp)                      # 8-byte Folded Reload
	ld	s2, 24(sp)                      # 8-byte Folded Reload
	ld	s3, 16(sp)                      # 8-byte Folded Reload
	ld	s4, 8(sp)                       # 8-byte Folded Reload
	.cfi_restore s0
	.cfi_restore s1
	.cfi_restore s2
	.cfi_restore s3
	.cfi_restore s4
	addi	sp, sp, 48
	.cfi_def_cfa_offset 0
.LBB0_9:                                # %for.cond.cleanup
	ret
.Lfunc_end0:
	.size	aos_reduce_sum_i64, .Lfunc_end0-aos_reduce_sum_i64
	.cfi_endproc
                                        # -- End function
	.ident	"clang version 21.0.0git (https://github.com/llvm/llvm-project.git 2f7e674a3a2862bccde1dfdb190c3f08f4fa3307)"
	.section	".note.GNU-stack","",@progbits
	.addrsig
