	.attribute	4, 16
	.attribute	5, "rv64i2p1_m2p0_a2p1_f2p2_d2p2_c2p0_v1p0_zicsr2p0_zifencei2p0_zmmul1p0_zaamo1p0_zalrsc1p0_zfh1p0_zfhmin1p0_zca1p0_zcd1p0_zba1p0_zbb1p0_zve32f1p0_zve32x1p0_zve64d1p0_zve64f1p0_zve64x1p0_zvfh1p0_zvfhmin1p0_zvl128b1p0_zvl256b1p0_zvl32b1p0_zvl512b1p0_zvl64b1p0"
	.file	"ml_primitives.c"
	.text
	.globl	vector_expr_f32                 # -- Begin function vector_expr_f32
	.p2align	1
	.type	vector_expr_f32,@function
vector_expr_f32:                        # @vector_expr_f32
	.cfi_startproc
# %bb.0:                                # %entry
	beqz	a2, .LBB0_4
# %bb.1:                                # %for.body.preheader
	addi	sp, sp, -32
	.cfi_def_cfa_offset 32
	sd	ra, 24(sp)                      # 8-byte Folded Spill
	sd	s0, 16(sp)                      # 8-byte Folded Spill
	sd	s1, 8(sp)                       # 8-byte Folded Spill
	sd	s2, 0(sp)                       # 8-byte Folded Spill
	.cfi_offset ra, -8
	.cfi_offset s0, -16
	.cfi_offset s1, -24
	.cfi_offset s2, -32
	mv	s0, a1
	mv	s1, a0
	sh2add.uw	s2, a2, a1
.LBB0_2:                                # %for.body
                                        # =>This Inner Loop Header: Depth=1
	flw	fa0, 0(s0)
	call	expf
	flw	fa5, 0(s1)
	addi	s0, s0, 4
	fadd.s	fa5, fa0, fa5
	fsw	fa5, 0(s1)
	addi	s1, s1, 4
	bne	s0, s2, .LBB0_2
# %bb.3:
	ld	ra, 24(sp)                      # 8-byte Folded Reload
	ld	s0, 16(sp)                      # 8-byte Folded Reload
	ld	s1, 8(sp)                       # 8-byte Folded Reload
	ld	s2, 0(sp)                       # 8-byte Folded Reload
	.cfi_restore ra
	.cfi_restore s0
	.cfi_restore s1
	.cfi_restore s2
	addi	sp, sp, 32
	.cfi_def_cfa_offset 0
.LBB0_4:                                # %for.cond.cleanup
	ret
.Lfunc_end0:
	.size	vector_expr_f32, .Lfunc_end0-vector_expr_f32
	.cfi_endproc
                                        # -- End function
	.ident	"clang version 21.0.0git (https://github.com/llvm/llvm-project.git 2f7e674a3a2862bccde1dfdb190c3f08f4fa3307)"
	.section	".note.GNU-stack","",@progbits
	.addrsig
