	.attribute	4, 16
	.attribute	5, "rv64i2p1_m2p0_a2p1_f2p2_d2p2_c2p0_b1p0_v1p0_zic64b1p0_zicbom1p0_zicbop1p0_zicboz1p0_ziccamoa1p0_ziccif1p0_zicclsm1p0_ziccrse1p0_zicntr2p0_zicsr2p0_zihintpause2p0_zihpm2p0_zmmul1p0_za64rs1p0_zaamo1p0_zalrsc1p0_zfhmin1p0_zca1p0_zcd1p0_zba1p0_zbb1p0_zbs1p0_zkt1p0_zve32f1p0_zve32x1p0_zve64d1p0_zve64f1p0_zve64x1p0_zvl128b1p0_zvl32b1p0_zvl64b1p0"
	.file	"vector_reduce_max_i32.c"
	.text
	.globl	vector_reduce_max_i32           # -- Begin function vector_reduce_max_i32
	.p2align	1
	.type	vector_reduce_max_i32,@function
vector_reduce_max_i32:                  # @vector_reduce_max_i32
.Lfunc_begin0:
	.file	0 "/home/preames/benchmarking/simple-vector-riscv" "vector_reduce_max_i32.c" md5 0x44cec6698acc09995693a54af2e6215f
	.loc	0 1 0                           # vector_reduce_max_i32.c:1:0
	.cfi_startproc
# %bb.0:                                # %entry
	addi	sp, sp, -48
	.cfi_def_cfa_offset 48
	sd	ra, 40(sp)                      # 8-byte Folded Spill
	sd	s0, 32(sp)                      # 8-byte Folded Spill
	.cfi_offset ra, -8
	.cfi_offset s0, -16
	addi	s0, sp, 48
	.cfi_def_cfa s0, 0
                                        # kill: def $x12 killed $x11
	sd	a0, -24(s0)
	sw	a1, -28(s0)
	lui	a0, 807449
	addiw	a0, a0, 1871
.Ltmp0:
	.loc	0 2 7 prologue_end              # vector_reduce_max_i32.c:2:7
	sw	a0, -32(s0)
	li	a0, 0
.Ltmp1:
	.loc	0 3 17                          # vector_reduce_max_i32.c:3:17
	sw	a0, -36(s0)
	.loc	0 3 8 is_stmt 0                 # vector_reduce_max_i32.c:3:8
	j	.LBB0_1
.LBB0_1:                                # %for.cond
                                        # =>This Inner Loop Header: Depth=1
.Ltmp2:
	.loc	0 3 24                          # vector_reduce_max_i32.c:3:24
	lw	a0, -36(s0)
	.loc	0 3 28                          # vector_reduce_max_i32.c:3:28
	lw	a1, -28(s0)
.Ltmp3:
	.loc	0 3 3                           # vector_reduce_max_i32.c:3:3
	bgeu	a0, a1, .LBB0_7
	j	.LBB0_2
.LBB0_2:                                # %for.body
                                        #   in Loop: Header=BB0_1 Depth=1
.Ltmp4:
	.loc	0 4 12 is_stmt 1                # vector_reduce_max_i32.c:4:12
	ld	a1, -24(s0)
	.loc	0 4 14 is_stmt 0                # vector_reduce_max_i32.c:4:14
	lwu	a0, -36(s0)
	.loc	0 4 12                          # vector_reduce_max_i32.c:4:12
	sh2add	a0, a0, a1
	lw	a1, 0(a0)
	.loc	0 4 19                          # vector_reduce_max_i32.c:4:19
	lw	a0, -32(s0)
	.loc	0 4 11                          # vector_reduce_max_i32.c:4:11
	bge	a0, a1, .LBB0_4
	j	.LBB0_3
.LBB0_3:                                # %cond.true
                                        #   in Loop: Header=BB0_1 Depth=1
	.loc	0 4 26                          # vector_reduce_max_i32.c:4:26
	ld	a1, -24(s0)
	.loc	0 4 28                          # vector_reduce_max_i32.c:4:28
	lwu	a0, -36(s0)
	.loc	0 4 26                          # vector_reduce_max_i32.c:4:26
	sh2add	a0, a0, a1
	lw	a0, 0(a0)
	sd	a0, -48(s0)                     # 8-byte Folded Spill
	.loc	0 4 11                          # vector_reduce_max_i32.c:4:11
	j	.LBB0_5
.LBB0_4:                                # %cond.false
                                        #   in Loop: Header=BB0_1 Depth=1
	.loc	0 4 33                          # vector_reduce_max_i32.c:4:33
	lw	a0, -32(s0)
	sd	a0, -48(s0)                     # 8-byte Folded Spill
	.loc	0 4 11                          # vector_reduce_max_i32.c:4:11
	j	.LBB0_5
.LBB0_5:                                # %cond.end
                                        #   in Loop: Header=BB0_1 Depth=1
	.loc	0 0 11                          # vector_reduce_max_i32.c:0:11
	ld	a0, -48(s0)                     # 8-byte Folded Reload
	.loc	0 4 9                           # vector_reduce_max_i32.c:4:9
	sw	a0, -32(s0)
	.loc	0 4 5                           # vector_reduce_max_i32.c:4:5
	j	.LBB0_6
.LBB0_6:                                # %for.inc
                                        #   in Loop: Header=BB0_1 Depth=1
	.loc	0 3 36 is_stmt 1                # vector_reduce_max_i32.c:3:36
	lw	a0, -36(s0)
	addiw	a0, a0, 1
	sw	a0, -36(s0)
	.loc	0 3 3 is_stmt 0                 # vector_reduce_max_i32.c:3:3
	j	.LBB0_1
.Ltmp5:
.LBB0_7:                                # %for.end
	.loc	0 5 10 is_stmt 1                # vector_reduce_max_i32.c:5:10
	lw	a0, -32(s0)
	.loc	0 5 3 epilogue_begin is_stmt 0  # vector_reduce_max_i32.c:5:3
	addi	sp, s0, -48
	.cfi_def_cfa sp, 48
	ld	ra, 40(sp)                      # 8-byte Folded Reload
	ld	s0, 32(sp)                      # 8-byte Folded Reload
	.cfi_restore ra
	.cfi_restore s0
	addi	sp, sp, 48
	.cfi_def_cfa_offset 0
	ret
.Ltmp6:
.Lfunc_end0:
	.size	vector_reduce_max_i32, .Lfunc_end0-vector_reduce_max_i32
	.cfi_endproc
                                        # -- End function
	.section	".note.GNU-stack","",@progbits
	.addrsig