	.attribute	4, 16
	.attribute	5, "rv64i2p1_m2p0_a2p1_f2p2_d2p2_c2p0_v1p0_zicsr2p0_zifencei2p0_zmmul1p0_zaamo1p0_zalrsc1p0_zfh1p0_zfhmin1p0_zca1p0_zcd1p0_zba1p0_zbb1p0_zve32f1p0_zve32x1p0_zve64d1p0_zve64f1p0_zve64x1p0_zvfh1p0_zvfhmin1p0_zvl128b1p0_zvl256b1p0_zvl32b1p0_zvl512b1p0_zvl64b1p0"
	.file	"dotproduct_i32.c"
	.text
	.globl	dotproduct_i32                  # -- Begin function dotproduct_i32
	.p2align	1
	.type	dotproduct_i32,@function
dotproduct_i32:                         # @dotproduct_i32
.Lfunc_begin0:
	.file	0 "/home/preames/benchmarking/simple-vector-riscv" "dotproduct_i32.c" md5 0xa688ea1622d8ab832b775b7ef22f9fc7
	.loc	0 3 0                           # dotproduct_i32.c:3:0
	.cfi_startproc
# %bb.0:                                # %entry
	addi	sp, sp, -48
	.cfi_def_cfa_offset 48
	sd	ra, 40(sp)                      # 8-byte Folded Spill
	sd	s0, 32(sp)                      # 8-byte Folded Spill
	.cfi_offset ra, -8
	.cfi_offset s0, -16
	addi	s0, sp, 48
	.cfi_def_cfa s0, 0
                                        # kill: def $x13 killed $x10
	sw	a0, -20(s0)
	sd	a1, -32(s0)
	sd	a2, -40(s0)
	li	a0, 0
.Ltmp0:
	.loc	0 4 7 prologue_end              # dotproduct_i32.c:4:7
	sw	a0, -44(s0)
.Ltmp1:
	.loc	0 5 17                          # dotproduct_i32.c:5:17
	sw	a0, -48(s0)
	.loc	0 5 8 is_stmt 0                 # dotproduct_i32.c:5:8
	j	.LBB0_1
.LBB0_1:                                # %for.cond
                                        # =>This Inner Loop Header: Depth=1
.Ltmp2:
	.loc	0 5 24                          # dotproduct_i32.c:5:24
	lw	a0, -48(s0)
	.loc	0 5 28                          # dotproduct_i32.c:5:28
	lw	a1, -20(s0)
.Ltmp3:
	.loc	0 5 3                           # dotproduct_i32.c:5:3
	bgeu	a0, a1, .LBB0_4
	j	.LBB0_2
.LBB0_2:                                # %for.body
                                        #   in Loop: Header=BB0_1 Depth=1
.Ltmp4:
	.loc	0 6 12 is_stmt 1                # dotproduct_i32.c:6:12
	ld	a0, -32(s0)
	.loc	0 6 14 is_stmt 0                # dotproduct_i32.c:6:14
	lwu	a1, -48(s0)
	.loc	0 6 12                          # dotproduct_i32.c:6:12
	sh2add	a0, a1, a0
	lw	a0, 0(a0)
	.loc	0 6 19                          # dotproduct_i32.c:6:19
	ld	a2, -40(s0)
	sh2add	a1, a1, a2
	lw	a1, 0(a1)
	.loc	0 6 17                          # dotproduct_i32.c:6:17
	mulw	a1, a0, a1
	.loc	0 6 9                           # dotproduct_i32.c:6:9
	lw	a0, -44(s0)
	addw	a0, a0, a1
	sw	a0, -44(s0)
	.loc	0 6 5                           # dotproduct_i32.c:6:5
	j	.LBB0_3
.LBB0_3:                                # %for.inc
                                        #   in Loop: Header=BB0_1 Depth=1
	.loc	0 5 34 is_stmt 1                # dotproduct_i32.c:5:34
	lw	a0, -48(s0)
	addiw	a0, a0, 1
	sw	a0, -48(s0)
	.loc	0 5 3 is_stmt 0                 # dotproduct_i32.c:5:3
	j	.LBB0_1
.Ltmp5:
.LBB0_4:                                # %for.end
	.loc	0 7 10 is_stmt 1                # dotproduct_i32.c:7:10
	lw	a0, -44(s0)
	.loc	0 7 3 epilogue_begin is_stmt 0  # dotproduct_i32.c:7:3
	addi	sp, s0, -48
	.cfi_def_cfa sp, 48
	ld	ra, 40(sp)                      # 8-byte Folded Reload
	ld	s0, 32(sp)                      # 8-byte Folded Reload
	.cfi_restore ra
	.cfi_restore s0
	addi	sp, sp, 48
	.cfi_def_cfa_offset 0
	ret
.Ltmp6:
.Lfunc_end0:
	.size	dotproduct_i32, .Lfunc_end0-dotproduct_i32
	.cfi_endproc
                                        # -- End function
	.section	".note.GNU-stack","",@progbits
	.addrsig