	.attribute	4, 16
	.attribute	5, "rv64i2p1_m2p0_a2p1_f2p2_d2p2_c2p0_v1p0_zicsr2p0_zifencei2p0_zmmul1p0_zaamo1p0_zalrsc1p0_zfh1p0_zfhmin1p0_zca1p0_zcd1p0_zba1p0_zbb1p0_zve32f1p0_zve32x1p0_zve64d1p0_zve64f1p0_zve64x1p0_zvfh1p0_zvfhmin1p0_zvl128b1p0_zvl256b1p0_zvl32b1p0_zvl512b1p0_zvl64b1p0"
	.file	"openblas_gepb_16x4.c"
	.text
	.globl	test                            # -- Begin function test
	.p2align	1
	.type	test,@function
test:                                   # @test
.Lfunc_begin0:
	.file	0 "/home/preames/benchmarking/simple-vector-riscv" "openblas_gepb_16x4.c" md5 0xd8686e7109744cf94f07a7a2da3a108c
	.loc	0 5 0                           # openblas_gepb_16x4.c:5:0
	.cfi_startproc
# %bb.0:                                # %entry
	addi	sp, sp, -48
	.cfi_def_cfa_offset 48
	sd	ra, 40(sp)                      # 8-byte Folded Spill
	sd	s0, 32(sp)                      # 8-byte Folded Spill
	.cfi_offset ra, -8
	.cfi_offset s0, -16
	addi	s0, sp, 48
	.cfi_def_cfa s0, 0
	sd	a0, -24(s0)
	sd	a1, -32(s0)
	sd	a2, -40(s0)
	li	a0, 0
.Ltmp0:
	.loc	0 6 13 prologue_end             # openblas_gepb_16x4.c:6:13
	sw	a0, -44(s0)
	.loc	0 6 9 is_stmt 0                 # openblas_gepb_16x4.c:6:9
	j	.LBB0_1
.LBB0_1:                                # %for.cond
                                        # =>This Loop Header: Depth=1
                                        #     Child Loop BB0_3 Depth 2
.Ltmp1:
	.loc	0 6 21                          # openblas_gepb_16x4.c:6:21
	lw	a1, -44(s0)
	li	a0, 3
.Ltmp2:
	.loc	0 6 5                           # openblas_gepb_16x4.c:6:5
	blt	a0, a1, .LBB0_8
	j	.LBB0_2
.LBB0_2:                                # %for.body
                                        #   in Loop: Header=BB0_1 Depth=1
	.loc	0 0 5                           # openblas_gepb_16x4.c:0:5
	li	a0, 0
.Ltmp3:
	.loc	0 7 17 is_stmt 1                # openblas_gepb_16x4.c:7:17
	sw	a0, -48(s0)
	.loc	0 7 13 is_stmt 0                # openblas_gepb_16x4.c:7:13
	j	.LBB0_3
.LBB0_3:                                # %for.cond1
                                        #   Parent Loop BB0_1 Depth=1
                                        # =>  This Inner Loop Header: Depth=2
.Ltmp4:
	.loc	0 7 25                          # openblas_gepb_16x4.c:7:25
	lw	a1, -48(s0)
	li	a0, 15
.Ltmp5:
	.loc	0 7 9                           # openblas_gepb_16x4.c:7:9
	blt	a0, a1, .LBB0_6
	j	.LBB0_4
.LBB0_4:                                # %for.body3
                                        #   in Loop: Header=BB0_3 Depth=2
.Ltmp6:
	.loc	0 8 34 is_stmt 1                # openblas_gepb_16x4.c:8:34
	ld	a0, -24(s0)
	.loc	0 8 36 is_stmt 0                # openblas_gepb_16x4.c:8:36
	lw	a2, -48(s0)
	.loc	0 8 34                          # openblas_gepb_16x4.c:8:34
	sh2add	a0, a2, a0
	flw	fa5, 0(a0)
	.loc	0 8 42                          # openblas_gepb_16x4.c:8:42
	ld	a1, -32(s0)
	.loc	0 8 44                          # openblas_gepb_16x4.c:8:44
	lw	a0, -44(s0)
	.loc	0 8 42                          # openblas_gepb_16x4.c:8:42
	sh2add	a1, a0, a1
	flw	fa4, 0(a1)
	.loc	0 8 13                          # openblas_gepb_16x4.c:8:13
	ld	a1, -40(s0)
	.loc	0 8 17                          # openblas_gepb_16x4.c:8:17
	slliw	a0, a0, 4
	.loc	0 8 26                          # openblas_gepb_16x4.c:8:26
	addw	a0, a0, a2
	.loc	0 8 13                          # openblas_gepb_16x4.c:8:13
	sh2add	a0, a0, a1
	.loc	0 8 31                          # openblas_gepb_16x4.c:8:31
	flw	fa3, 0(a0)
	fmadd.s	fa5, fa5, fa4, fa3
	fsw	fa5, 0(a0)
	.loc	0 9 9 is_stmt 1                 # openblas_gepb_16x4.c:9:9
	j	.LBB0_5
.Ltmp7:
.LBB0_5:                                # %for.inc
                                        #   in Loop: Header=BB0_3 Depth=2
	.loc	0 7 42                          # openblas_gepb_16x4.c:7:42
	lw	a0, -48(s0)
	addiw	a0, a0, 1
	sw	a0, -48(s0)
	.loc	0 7 9 is_stmt 0                 # openblas_gepb_16x4.c:7:9
	j	.LBB0_3
.Ltmp8:
.LBB0_6:                                # %for.end
                                        #   in Loop: Header=BB0_1 Depth=1
	.loc	0 10 5 is_stmt 1                # openblas_gepb_16x4.c:10:5
	j	.LBB0_7
.Ltmp9:
.LBB0_7:                                # %for.inc9
                                        #   in Loop: Header=BB0_1 Depth=1
	.loc	0 6 38                          # openblas_gepb_16x4.c:6:38
	lw	a0, -44(s0)
	addiw	a0, a0, 1
	sw	a0, -44(s0)
	.loc	0 6 5 is_stmt 0                 # openblas_gepb_16x4.c:6:5
	j	.LBB0_1
.Ltmp10:
.LBB0_8:                                # %for.end11
	.loc	0 11 1 epilogue_begin is_stmt 1 # openblas_gepb_16x4.c:11:1
	addi	sp, s0, -48
	.cfi_def_cfa sp, 48
	ld	ra, 40(sp)                      # 8-byte Folded Reload
	ld	s0, 32(sp)                      # 8-byte Folded Reload
	.cfi_restore ra
	.cfi_restore s0
	addi	sp, sp, 48
	.cfi_def_cfa_offset 0
	ret
.Ltmp11:
.Lfunc_end0:
	.size	test, .Lfunc_end0-test
	.cfi_endproc
                                        # -- End function
	.section	".note.GNU-stack","",@progbits
	.addrsig