	.attribute	4, 16
	.attribute	5, "rv64i2p1_m2p0_a2p1_f2p2_d2p2_c2p0_zicsr2p0_zifencei2p0_zmmul1p0_zaamo1p0_zalrsc1p0_zca1p0_zcd1p0"
	.file	"vector_abs_diff_i8.c"
	.file	0 "/home/preames/benchmarking/simple-vector-riscv" "vector_abs_diff_i8.c" md5 0xe035d42647c44ff713e93eff9bb27637
	.text
	.globl	sub                             # -- Begin function sub
	.p2align	1
	.type	sub,@function
sub:                                    # @sub
.Lfunc_begin0:
	.loc	0 5 0                           # vector_abs_diff_i8.c:5:0
	.cfi_startproc
# %bb.0:                                # %entry
	addi	sp, sp, -32
	.cfi_def_cfa_offset 32
	sd	ra, 24(sp)                      # 8-byte Folded Spill
	sd	s0, 16(sp)                      # 8-byte Folded Spill
	.cfi_offset ra, -8
	.cfi_offset s0, -16
	addi	s0, sp, 32
	.cfi_def_cfa s0, 0
                                        # kill: def $x12 killed $x11
                                        # kill: def $x12 killed $x10
	sb	a0, -17(s0)
	sb	a1, -18(s0)
.Ltmp0:
	.loc	0 6 19 prologue_end             # vector_abs_diff_i8.c:6:19
	lbu	a0, -17(s0)
	.loc	0 6 28 is_stmt 0                # vector_abs_diff_i8.c:6:28
	lbu	a1, -18(s0)
	.loc	0 6 26                          # vector_abs_diff_i8.c:6:26
	subw	a0, a0, a1
	.loc	0 6 3                           # vector_abs_diff_i8.c:6:3
	slli	a0, a0, 56
	srai	a0, a0, 56
	.cfi_def_cfa sp, 32
	.loc	0 6 3 epilogue_begin            # vector_abs_diff_i8.c:6:3
	ld	ra, 24(sp)                      # 8-byte Folded Reload
	ld	s0, 16(sp)                      # 8-byte Folded Reload
	.cfi_restore ra
	.cfi_restore s0
	addi	sp, sp, 32
	.cfi_def_cfa_offset 0
	ret
.Ltmp1:
.Lfunc_end0:
	.size	sub, .Lfunc_end0-sub
	.cfi_endproc
                                        # -- End function
	.globl	myabs                           # -- Begin function myabs
	.p2align	1
	.type	myabs,@function
myabs:                                  # @myabs
.Lfunc_begin1:
	.loc	0 9 0 is_stmt 1                 # vector_abs_diff_i8.c:9:0
	.cfi_startproc
# %bb.0:                                # %entry
	addi	sp, sp, -32
	.cfi_def_cfa_offset 32
	sd	ra, 24(sp)                      # 8-byte Folded Spill
	sd	s0, 16(sp)                      # 8-byte Folded Spill
	.cfi_offset ra, -8
	.cfi_offset s0, -16
	addi	s0, sp, 32
	.cfi_def_cfa s0, 0
                                        # kill: def $x11 killed $x10
	sb	a0, -17(s0)
.Ltmp2:
	.loc	0 11 11 prologue_end            # vector_abs_diff_i8.c:11:11
	lb	a0, -17(s0)
	.loc	0 11 10 is_stmt 0               # vector_abs_diff_i8.c:11:10
	bgez	a0, .LBB1_2
	j	.LBB1_1
.LBB1_1:                                # %cond.true
	.loc	0 11 26                         # vector_abs_diff_i8.c:11:26
	lb	a1, -17(s0)
	li	a0, 0
	.loc	0 11 20                         # vector_abs_diff_i8.c:11:20
	call	sub
	sd	a0, -32(s0)                     # 8-byte Folded Spill
	.loc	0 11 10                         # vector_abs_diff_i8.c:11:10
	j	.LBB1_3
.LBB1_2:                                # %cond.false
	.loc	0 11 31                         # vector_abs_diff_i8.c:11:31
	lb	a0, -17(s0)
	sd	a0, -32(s0)                     # 8-byte Folded Spill
	.loc	0 11 10                         # vector_abs_diff_i8.c:11:10
	j	.LBB1_3
.LBB1_3:                                # %cond.end
	.loc	0 0 10                          # vector_abs_diff_i8.c:0:10
	ld	a0, -32(s0)                     # 8-byte Folded Reload
	.loc	0 11 3                          # vector_abs_diff_i8.c:11:3
	slli	a0, a0, 56
	srai	a0, a0, 56
	.cfi_def_cfa sp, 32
	.loc	0 11 3 epilogue_begin           # vector_abs_diff_i8.c:11:3
	ld	ra, 24(sp)                      # 8-byte Folded Reload
	ld	s0, 16(sp)                      # 8-byte Folded Reload
	.cfi_restore ra
	.cfi_restore s0
	addi	sp, sp, 32
	.cfi_def_cfa_offset 0
	ret
.Ltmp3:
.Lfunc_end1:
	.size	myabs, .Lfunc_end1-myabs
	.cfi_endproc
                                        # -- End function
	.globl	vector_abs_diff                 # -- Begin function vector_abs_diff
	.p2align	1
	.type	vector_abs_diff,@function
vector_abs_diff:                        # @vector_abs_diff
.Lfunc_begin2:
	.loc	0 14 0 is_stmt 1                # vector_abs_diff_i8.c:14:0
	.cfi_startproc
# %bb.0:                                # %entry
	addi	sp, sp, -48
	.cfi_def_cfa_offset 48
	sd	ra, 40(sp)                      # 8-byte Folded Spill
	sd	s0, 32(sp)                      # 8-byte Folded Spill
	.cfi_offset ra, -8
	.cfi_offset s0, -16
	addi	s0, sp, 48
	.cfi_def_cfa s0, 0
                                        # kill: def $x14 killed $x13
	sd	a0, -24(s0)
	sd	a1, -32(s0)
	sd	a2, -40(s0)
	sw	a3, -44(s0)
	li	a0, 0
.Ltmp4:
	.loc	0 15 17 prologue_end            # vector_abs_diff_i8.c:15:17
	sw	a0, -48(s0)
	.loc	0 15 8 is_stmt 0                # vector_abs_diff_i8.c:15:8
	j	.LBB2_1
.LBB2_1:                                # %for.cond
                                        # =>This Inner Loop Header: Depth=1
.Ltmp5:
	.loc	0 15 24                         # vector_abs_diff_i8.c:15:24
	lw	a0, -48(s0)
	.loc	0 15 28                         # vector_abs_diff_i8.c:15:28
	lw	a1, -44(s0)
.Ltmp6:
	.loc	0 15 3                          # vector_abs_diff_i8.c:15:3
	bgeu	a0, a1, .LBB2_4
	j	.LBB2_2
.LBB2_2:                                # %for.body
                                        #   in Loop: Header=BB2_1 Depth=1
.Ltmp7:
	.loc	0 16 22 is_stmt 1               # vector_abs_diff_i8.c:16:22
	ld	a0, -32(s0)
	.loc	0 16 24 is_stmt 0               # vector_abs_diff_i8.c:16:24
	lwu	a2, -48(s0)
	.loc	0 16 22                         # vector_abs_diff_i8.c:16:22
	add	a0, a0, a2
	lb	a0, 0(a0)
	.loc	0 16 28                         # vector_abs_diff_i8.c:16:28
	ld	a1, -40(s0)
	add	a1, a1, a2
	lb	a1, 0(a1)
	.loc	0 16 18                         # vector_abs_diff_i8.c:16:18
	call	sub
	.loc	0 16 12                         # vector_abs_diff_i8.c:16:12
	call	myabs
	.loc	0 16 5                          # vector_abs_diff_i8.c:16:5
	ld	a1, -24(s0)
	.loc	0 16 7                          # vector_abs_diff_i8.c:16:7
	lwu	a2, -48(s0)
	.loc	0 16 5                          # vector_abs_diff_i8.c:16:5
	add	a1, a1, a2
	.loc	0 16 10                         # vector_abs_diff_i8.c:16:10
	sb	a0, 0(a1)
	.loc	0 17 3 is_stmt 1                # vector_abs_diff_i8.c:17:3
	j	.LBB2_3
.Ltmp8:
.LBB2_3:                                # %for.inc
                                        #   in Loop: Header=BB2_1 Depth=1
	.loc	0 15 32                         # vector_abs_diff_i8.c:15:32
	lw	a0, -48(s0)
	addiw	a0, a0, 1
	sw	a0, -48(s0)
	.loc	0 15 3 is_stmt 0                # vector_abs_diff_i8.c:15:3
	j	.LBB2_1
.Ltmp9:
.LBB2_4:                                # %for.end
	.cfi_def_cfa sp, 48
	.loc	0 18 1 epilogue_begin is_stmt 1 # vector_abs_diff_i8.c:18:1
	ld	ra, 40(sp)                      # 8-byte Folded Reload
	ld	s0, 32(sp)                      # 8-byte Folded Reload
	.cfi_restore ra
	.cfi_restore s0
	addi	sp, sp, 48
	.cfi_def_cfa_offset 0
	ret
.Ltmp10:
.Lfunc_end2:
	.size	vector_abs_diff, .Lfunc_end2-vector_abs_diff
	.cfi_endproc
                                        # -- End function
	.section	".note.GNU-stack","",@progbits
	.addrsig
	.addrsig_sym sub
	.addrsig_sym myabs