	.attribute	4, 16
	.attribute	5, "rv64i2p1_m2p0_a2p1_f2p2_d2p2_c2p0_b1p0_v1p0_zic64b1p0_zicbom1p0_zicbop1p0_zicboz1p0_ziccamoa1p0_ziccif1p0_zicclsm1p0_ziccrse1p0_zicntr2p0_zicond1p0_zicsr2p0_zifencei2p0_zihintpause2p0_zihpm2p0_zmmul1p0_za64rs1p0_zaamo1p0_zalrsc1p0_zfh1p0_zfhmin1p0_zca1p0_zcd1p0_zba1p0_zbb1p0_zbc1p0_zbkc1p0_zbs1p0_zkt1p0_zve32f1p0_zve32x1p0_zve64d1p0_zve64f1p0_zve64x1p0_zvfh1p0_zvfhmin1p0_zvkt1p0_zvl128b1p0_zvl256b1p0_zvl32b1p0_zvl64b1p0_ssccptr1p0_sscofpmf1p0_sscounterenw1p0_sstc1p0_sstvala1p0_sstvecd1p0_svade1p0_svbare1p0_svinval1p0_svnapot1p0_svpbmt1p0"
	.file	"vector_sum_abs_diff.c"
	.file	0 "/home/preames/benchmarking/simple-vector-riscv" "vector_sum_abs_diff.c" md5 0x35ff705e57d886c9c8cd065d825c538b
	.text
	.globl	sub                             # -- Begin function sub
	.p2align	1
	.type	sub,@function
sub:                                    # @sub
.Lfunc_begin0:
	.loc	0 5 0                           # vector_sum_abs_diff.c:5:0
	.cfi_startproc
# %bb.0:                                # %entry
	addi	sp, sp, -32
	.cfi_def_cfa_offset 32
	sd	ra, 24(sp)                      # 8-byte Folded Spill
	sd	s0, 16(sp)                      # 8-byte Folded Spill
	.cfi_offset ra, -8
	.cfi_offset s0, -16
	addi	s0, sp, 32
	.cfi_def_cfa s0, 0
                                        # kill: def $x12 killed $x11
                                        # kill: def $x12 killed $x10
	sb	a0, -17(s0)
	sb	a1, -18(s0)
.Ltmp0:
	.loc	0 6 19 prologue_end             # vector_sum_abs_diff.c:6:19
	lbu	a0, -17(s0)
	.loc	0 6 28 is_stmt 0                # vector_sum_abs_diff.c:6:28
	lbu	a1, -18(s0)
	.loc	0 6 26                          # vector_sum_abs_diff.c:6:26
	subw	a0, a0, a1
	.loc	0 6 3                           # vector_sum_abs_diff.c:6:3
	sext.b	a0, a0
	.loc	0 6 3 epilogue_begin            # vector_sum_abs_diff.c:6:3
	addi	sp, s0, -32
	.cfi_def_cfa sp, 32
	ld	ra, 24(sp)                      # 8-byte Folded Reload
	ld	s0, 16(sp)                      # 8-byte Folded Reload
	.cfi_restore ra
	.cfi_restore s0
	addi	sp, sp, 32
	.cfi_def_cfa_offset 0
	ret
.Ltmp1:
.Lfunc_end0:
	.size	sub, .Lfunc_end0-sub
	.cfi_endproc
                                        # -- End function
	.globl	myabs                           # -- Begin function myabs
	.p2align	1
	.type	myabs,@function
myabs:                                  # @myabs
.Lfunc_begin1:
	.loc	0 9 0 is_stmt 1                 # vector_sum_abs_diff.c:9:0
	.cfi_startproc
# %bb.0:                                # %entry
	addi	sp, sp, -32
	.cfi_def_cfa_offset 32
	sd	ra, 24(sp)                      # 8-byte Folded Spill
	sd	s0, 16(sp)                      # 8-byte Folded Spill
	.cfi_offset ra, -8
	.cfi_offset s0, -16
	addi	s0, sp, 32
	.cfi_def_cfa s0, 0
                                        # kill: def $x11 killed $x10
	sb	a0, -17(s0)
.Ltmp2:
	.loc	0 11 11 prologue_end            # vector_sum_abs_diff.c:11:11
	lb	a0, -17(s0)
	.loc	0 11 10 is_stmt 0               # vector_sum_abs_diff.c:11:10
	bgez	a0, .LBB1_2
	j	.LBB1_1
.LBB1_1:                                # %cond.true
	.loc	0 11 26                         # vector_sum_abs_diff.c:11:26
	lb	a1, -17(s0)
	li	a0, 0
	.loc	0 11 20                         # vector_sum_abs_diff.c:11:20
	call	sub
	sd	a0, -32(s0)                     # 8-byte Folded Spill
	.loc	0 11 10                         # vector_sum_abs_diff.c:11:10
	j	.LBB1_3
.LBB1_2:                                # %cond.false
	.loc	0 11 31                         # vector_sum_abs_diff.c:11:31
	lb	a0, -17(s0)
	sd	a0, -32(s0)                     # 8-byte Folded Spill
	.loc	0 11 10                         # vector_sum_abs_diff.c:11:10
	j	.LBB1_3
.LBB1_3:                                # %cond.end
	.loc	0 0 10                          # vector_sum_abs_diff.c:0:10
	ld	a0, -32(s0)                     # 8-byte Folded Reload
	.loc	0 11 3                          # vector_sum_abs_diff.c:11:3
	sext.b	a0, a0
	.loc	0 11 3 epilogue_begin           # vector_sum_abs_diff.c:11:3
	addi	sp, s0, -32
	.cfi_def_cfa sp, 32
	ld	ra, 24(sp)                      # 8-byte Folded Reload
	ld	s0, 16(sp)                      # 8-byte Folded Reload
	.cfi_restore ra
	.cfi_restore s0
	addi	sp, sp, 32
	.cfi_def_cfa_offset 0
	ret
.Ltmp3:
.Lfunc_end1:
	.size	myabs, .Lfunc_end1-myabs
	.cfi_endproc
                                        # -- End function
	.globl	vector_sum_abs_diff             # -- Begin function vector_sum_abs_diff
	.p2align	1
	.type	vector_sum_abs_diff,@function
vector_sum_abs_diff:                    # @vector_sum_abs_diff
.Lfunc_begin2:
	.loc	0 14 0 is_stmt 1                # vector_sum_abs_diff.c:14:0
	.cfi_startproc
# %bb.0:                                # %entry
	addi	sp, sp, -64
	.cfi_def_cfa_offset 64
	sd	ra, 56(sp)                      # 8-byte Folded Spill
	sd	s0, 48(sp)                      # 8-byte Folded Spill
	.cfi_offset ra, -8
	.cfi_offset s0, -16
	addi	s0, sp, 64
	.cfi_def_cfa s0, 0
                                        # kill: def $x14 killed $x13
	sd	a0, -24(s0)
	sd	a1, -32(s0)
	sd	a2, -40(s0)
	sw	a3, -44(s0)
	li	a0, 0
.Ltmp4:
	.loc	0 15 17 prologue_end            # vector_sum_abs_diff.c:15:17
	sw	a0, -48(s0)
	.loc	0 15 8 is_stmt 0                # vector_sum_abs_diff.c:15:8
	j	.LBB2_1
.LBB2_1:                                # %for.cond
                                        # =>This Loop Header: Depth=1
                                        #     Child Loop BB2_3 Depth 2
.Ltmp5:
	.loc	0 15 24                         # vector_sum_abs_diff.c:15:24
	lw	a0, -48(s0)
	.loc	0 15 28                         # vector_sum_abs_diff.c:15:28
	lwu	a1, -44(s0)
	.loc	0 15 29                         # vector_sum_abs_diff.c:15:29
	srli	a1, a1, 3
.Ltmp6:
	.loc	0 15 3                          # vector_sum_abs_diff.c:15:3
	bgeu	a0, a1, .LBB2_8
	j	.LBB2_2
.LBB2_2:                                # %for.body
                                        #   in Loop: Header=BB2_1 Depth=1
	.loc	0 0 3                           # vector_sum_abs_diff.c:0:3
	li	a0, 0
.Ltmp7:
	.loc	0 16 9 is_stmt 1                # vector_sum_abs_diff.c:16:9
	sw	a0, -52(s0)
.Ltmp8:
	.loc	0 17 19                         # vector_sum_abs_diff.c:17:19
	sw	a0, -56(s0)
	.loc	0 17 10 is_stmt 0               # vector_sum_abs_diff.c:17:10
	j	.LBB2_3
.LBB2_3:                                # %for.cond1
                                        #   Parent Loop BB2_1 Depth=1
                                        # =>  This Inner Loop Header: Depth=2
.Ltmp9:
	.loc	0 17 26                         # vector_sum_abs_diff.c:17:26
	lw	a1, -56(s0)
	li	a0, 7
.Ltmp10:
	.loc	0 17 5                          # vector_sum_abs_diff.c:17:5
	bltu	a0, a1, .LBB2_6
	j	.LBB2_4
.LBB2_4:                                # %for.body3
                                        #   in Loop: Header=BB2_3 Depth=2
.Ltmp11:
	.loc	0 18 22 is_stmt 1               # vector_sum_abs_diff.c:18:22
	lw	a0, -48(s0)
	.loc	0 18 30 is_stmt 0               # vector_sum_abs_diff.c:18:30
	lw	a1, -56(s0)
	.loc	0 18 28                         # vector_sum_abs_diff.c:18:28
	sh3add	a0, a0, a1
	.loc	0 18 16                         # vector_sum_abs_diff.c:18:16
	sw	a0, -60(s0)
	.loc	0 19 22 is_stmt 1               # vector_sum_abs_diff.c:19:22
	ld	a0, -32(s0)
	.loc	0 19 24 is_stmt 0               # vector_sum_abs_diff.c:19:24
	lwu	a2, -60(s0)
	.loc	0 19 22                         # vector_sum_abs_diff.c:19:22
	add	a0, a0, a2
	lbu	a0, 0(a0)
	.loc	0 19 31                         # vector_sum_abs_diff.c:19:31
	ld	a1, -40(s0)
	add	a1, a1, a2
	lbu	a1, 0(a1)
	.loc	0 19 29                         # vector_sum_abs_diff.c:19:29
	subw	a0, a0, a1
	.loc	0 19 16                         # vector_sum_abs_diff.c:19:16
	sext.b	a0, a0
	call	myabs
	mv	a1, a0
	.loc	0 19 13                         # vector_sum_abs_diff.c:19:13
	lw	a0, -52(s0)
	addw	a0, a0, a1
	sw	a0, -52(s0)
	.loc	0 20 5 is_stmt 1                # vector_sum_abs_diff.c:20:5
	j	.LBB2_5
.Ltmp12:
.LBB2_5:                                # %for.inc
                                        #   in Loop: Header=BB2_3 Depth=2
	.loc	0 17 34                         # vector_sum_abs_diff.c:17:34
	lw	a0, -56(s0)
	addiw	a0, a0, 1
	sw	a0, -56(s0)
	.loc	0 17 5 is_stmt 0                # vector_sum_abs_diff.c:17:5
	j	.LBB2_3
.Ltmp13:
.LBB2_6:                                # %for.end
                                        #   in Loop: Header=BB2_1 Depth=1
	.loc	0 21 12 is_stmt 1               # vector_sum_abs_diff.c:21:12
	lw	a0, -52(s0)
	.loc	0 21 5 is_stmt 0                # vector_sum_abs_diff.c:21:5
	ld	a2, -24(s0)
	.loc	0 21 7                          # vector_sum_abs_diff.c:21:7
	lwu	a1, -48(s0)
	.loc	0 21 5                          # vector_sum_abs_diff.c:21:5
	sh2add	a1, a1, a2
	.loc	0 21 10                         # vector_sum_abs_diff.c:21:10
	sw	a0, 0(a1)
	.loc	0 22 3 is_stmt 1                # vector_sum_abs_diff.c:22:3
	j	.LBB2_7
.Ltmp14:
.LBB2_7:                                # %for.inc12
                                        #   in Loop: Header=BB2_1 Depth=1
	.loc	0 15 34                         # vector_sum_abs_diff.c:15:34
	lw	a0, -48(s0)
	addiw	a0, a0, 1
	sw	a0, -48(s0)
	.loc	0 15 3 is_stmt 0                # vector_sum_abs_diff.c:15:3
	j	.LBB2_1
.Ltmp15:
.LBB2_8:                                # %for.end14
	.loc	0 23 1 epilogue_begin is_stmt 1 # vector_sum_abs_diff.c:23:1
	addi	sp, s0, -64
	.cfi_def_cfa sp, 64
	ld	ra, 56(sp)                      # 8-byte Folded Reload
	ld	s0, 48(sp)                      # 8-byte Folded Reload
	.cfi_restore ra
	.cfi_restore s0
	addi	sp, sp, 64
	.cfi_def_cfa_offset 0
	ret
.Ltmp16:
.Lfunc_end2:
	.size	vector_sum_abs_diff, .Lfunc_end2-vector_sum_abs_diff
	.cfi_endproc
                                        # -- End function
	.section	".note.GNU-stack","",@progbits
	.addrsig
	.addrsig_sym sub
	.addrsig_sym myabs