	.attribute	4, 16
	.attribute	5, "rv64i2p1_m2p0_a2p1_f2p2_d2p2_c2p0_b1p0_v1p0_h1p0_zic64b1p0_zicbom1p0_zicbop1p0_zicboz1p0_ziccamoa1p0_ziccif1p0_zicclsm1p0_ziccrse1p0_zicntr2p0_zicond1p0_zicsr2p0_zifencei2p0_zihintntl1p0_zihintpause2p0_zihpm2p0_zimop1p0_zmmul1p0_za64rs1p0_zaamo1p0_zalrsc1p0_zawrs1p0_zfa1p0_zfbfmin1p0_zfh1p0_zfhmin1p0_zca1p0_zcb1p0_zcd1p0_zcmop1p0_zba1p0_zbb1p0_zbs1p0_zkt1p0_zvbb1p0_zvbc1p0_zve32f1p0_zve32x1p0_zve64d1p0_zve64f1p0_zve64x1p0_zvfbfmin1p0_zvfbfwma1p0_zvfh1p0_zvfhmin1p0_zvkb1p0_zvkg1p0_zvkn1p0_zvknc1p0_zvkned1p0_zvkng1p0_zvknhb1p0_zvkt1p0_zvl128b1p0_zvl256b1p0_zvl32b1p0_zvl64b1p0_sha1p0_shcounterenw1p0_shgatpa1p0_shtvala1p0_shvsatpa1p0_shvstvala1p0_shvstvecd1p0_smaia1p0_ssaia1p0_ssccptr1p0_sscofpmf1p0_sscounterenw1p0_ssnpm1p0_ssstateen1p0_ssstrict1p0_sstc1p0_sstvala1p0_sstvecd1p0_ssu64xl1p0_supm1p0_svade1p0_svbare1p0_svinval1p0_svnapot1p0_svpbmt1p0"
	.file	"aos_reduce_sum_i64.c"
	.text
	.globl	aos_reduce_sum_i64              # -- Begin function aos_reduce_sum_i64
	.p2align	1
	.type	aos_reduce_sum_i64,@function
aos_reduce_sum_i64:                     # @aos_reduce_sum_i64
.Lfunc_begin0:
	.file	0 "/home/preames/benchmarking/simple-vector-riscv" "aos_reduce_sum_i64.c" md5 0xc52a8f62bfccb6b11703c239583eaf5a
	.loc	0 15 0                          # aos_reduce_sum_i64.c:15:0
	.cfi_startproc
# %bb.0:                                # %entry
	addi	sp, sp, -48
	.cfi_def_cfa_offset 48
	sd	ra, 40(sp)                      # 8-byte Folded Spill
	sd	s0, 32(sp)                      # 8-byte Folded Spill
	.cfi_offset ra, -8
	.cfi_offset s0, -16
	addi	s0, sp, 48
	.cfi_def_cfa s0, 0
                                        # kill: def $x12 killed $x10
	sw	a0, -20(s0)
	sd	a1, -32(s0)
	li	a0, 0
.Ltmp0:
	.loc	0 16 8 prologue_end             # aos_reduce_sum_i64.c:16:8
	sd	a0, -40(s0)
.Ltmp1:
	.loc	0 17 17                         # aos_reduce_sum_i64.c:17:17
	sw	a0, -44(s0)
	.loc	0 17 8 is_stmt 0                # aos_reduce_sum_i64.c:17:8
	j	.LBB0_1
.LBB0_1:                                # %for.cond
                                        # =>This Inner Loop Header: Depth=1
.Ltmp2:
	.loc	0 17 24                         # aos_reduce_sum_i64.c:17:24
	lw	a0, -44(s0)
	.loc	0 17 28                         # aos_reduce_sum_i64.c:17:28
	lw	a1, -20(s0)
.Ltmp3:
	.loc	0 17 3                          # aos_reduce_sum_i64.c:17:3
	bgeu	a0, a1, .LBB0_4
	j	.LBB0_2
.LBB0_2:                                # %for.body
                                        #   in Loop: Header=BB0_1 Depth=1
.Ltmp4:
	.loc	0 18 12 is_stmt 1               # aos_reduce_sum_i64.c:18:12
	ld	a0, -32(s0)
	.loc	0 18 14 is_stmt 0               # aos_reduce_sum_i64.c:18:14
	lwu	a1, -44(s0)
	.loc	0 18 12                         # aos_reduce_sum_i64.c:18:12
	slli	a2, a1, 3
	slli	a1, a1, 6
	sub	a1, a1, a2
	add	a0, a0, a1
	.loc	0 18 17                         # aos_reduce_sum_i64.c:18:17
	ld	a1, 48(a0)
	.loc	0 18 9                          # aos_reduce_sum_i64.c:18:9
	ld	a0, -40(s0)
	add	a0, a0, a1
	sd	a0, -40(s0)
	.loc	0 18 5                          # aos_reduce_sum_i64.c:18:5
	j	.LBB0_3
.LBB0_3:                                # %for.inc
                                        #   in Loop: Header=BB0_1 Depth=1
	.loc	0 17 34 is_stmt 1               # aos_reduce_sum_i64.c:17:34
	lw	a0, -44(s0)
	addiw	a0, a0, 1
	sw	a0, -44(s0)
	.loc	0 17 3 is_stmt 0                # aos_reduce_sum_i64.c:17:3
	j	.LBB0_1
.Ltmp5:
.LBB0_4:                                # %for.end
	.loc	0 19 10 is_stmt 1               # aos_reduce_sum_i64.c:19:10
	lw	a0, -40(s0)
	.loc	0 19 3 epilogue_begin is_stmt 0 # aos_reduce_sum_i64.c:19:3
	addi	sp, s0, -48
	.cfi_def_cfa sp, 48
	ld	ra, 40(sp)                      # 8-byte Folded Reload
	ld	s0, 32(sp)                      # 8-byte Folded Reload
	.cfi_restore ra
	.cfi_restore s0
	addi	sp, sp, 48
	.cfi_def_cfa_offset 0
	ret
.Ltmp6:
.Lfunc_end0:
	.size	aos_reduce_sum_i64, .Lfunc_end0-aos_reduce_sum_i64
	.cfi_endproc
                                        # -- End function
	.section	".note.GNU-stack","",@progbits
	.addrsig