	.attribute	4, 16
	.attribute	5, "rv64i2p1_m2p0_a2p1_f2p2_d2p2_c2p0_b1p0_v1p0_zic64b1p0_zicbom1p0_zicbop1p0_zicboz1p0_ziccamoa1p0_ziccif1p0_zicclsm1p0_ziccrse1p0_zicntr2p0_zicond1p0_zicsr2p0_zihintntl1p0_zihintpause2p0_zihpm2p0_zimop1p0_zmmul1p0_za64rs1p0_zaamo1p0_zalrsc1p0_zawrs1p0_zfa1p0_zfhmin1p0_zca1p0_zcb1p0_zcd1p0_zcmop1p0_zba1p0_zbb1p0_zbs1p0_zkt1p0_zvbb1p0_zve32f1p0_zve32x1p0_zve64d1p0_zve64f1p0_zve64x1p0_zvfhmin1p0_zvkb1p0_zvkt1p0_zvl1024b1p0_zvl128b1p0_zvl2048b1p0_zvl256b1p0_zvl32b1p0_zvl4096b1p0_zvl512b1p0_zvl64b1p0_supm1p0"
	.file	"vector_addw_i32_i64.c"
	.file	0 "/home/preames/benchmarking/simple-vector-riscv" "vector_addw_i32_i64.c" md5 0x208a93b7516e69513b51aa110e926cb6
	.text
	.globl	test                            # -- Begin function test
	.p2align	1
	.type	test,@function
test:                                   # @test
.Lfunc_begin0:
	.loc	0 2 0                           # vector_addw_i32_i64.c:2:0
	.cfi_startproc
# %bb.0:                                # %entry
	addi	sp, sp, -48
	.cfi_def_cfa_offset 48
	sd	ra, 40(sp)                      # 8-byte Folded Spill
	sd	s0, 32(sp)                      # 8-byte Folded Spill
	.cfi_offset ra, -8
	.cfi_offset s0, -16
	addi	s0, sp, 48
	.cfi_def_cfa s0, 0
                                        # kill: def $x14 killed $x13
	sd	a0, -24(s0)
	sd	a1, -32(s0)
	sd	a2, -40(s0)
	sw	a3, -44(s0)
	li	a0, 0
.Ltmp0:
	.loc	0 3 12 prologue_end             # vector_addw_i32_i64.c:3:12
	sw	a0, -48(s0)
	.loc	0 3 8 is_stmt 0                 # vector_addw_i32_i64.c:3:8
	j	.LBB0_1
.LBB0_1:                                # %for.cond
                                        # =>This Inner Loop Header: Depth=1
.Ltmp1:
	.loc	0 3 19                          # vector_addw_i32_i64.c:3:19
	lw	a0, -48(s0)
	.loc	0 3 23                          # vector_addw_i32_i64.c:3:23
	lw	a1, -44(s0)
.Ltmp2:
	.loc	0 3 3                           # vector_addw_i32_i64.c:3:3
	bge	a0, a1, .LBB0_4
	j	.LBB0_2
.LBB0_2:                                # %for.body
                                        #   in Loop: Header=BB0_1 Depth=1
.Ltmp3:
	.loc	0 4 19 is_stmt 1                # vector_addw_i32_i64.c:4:19
	ld	a1, -32(s0)
	.loc	0 4 21 is_stmt 0                # vector_addw_i32_i64.c:4:21
	lw	a0, -48(s0)
	.loc	0 4 19                          # vector_addw_i32_i64.c:4:19
	sh2add	a1, a0, a1
	lw	a1, 0(a1)
	.loc	0 4 32                          # vector_addw_i32_i64.c:4:32
	ld	a2, -40(s0)
	sh2add	a2, a0, a2
	lw	a2, 0(a2)
	.loc	0 4 24                          # vector_addw_i32_i64.c:4:24
	add	a2, a2, a1
	.loc	0 4 5                           # vector_addw_i32_i64.c:4:5
	ld	a1, -24(s0)
	sh3add	a1, a0, a1
	.loc	0 4 10                          # vector_addw_i32_i64.c:4:10
	ld	a0, 0(a1)
	add	a0, a0, a2
	sd	a0, 0(a1)
	.loc	0 5 3 is_stmt 1                 # vector_addw_i32_i64.c:5:3
	j	.LBB0_3
.Ltmp4:
.LBB0_3:                                # %for.inc
                                        #   in Loop: Header=BB0_1 Depth=1
	.loc	0 3 29                          # vector_addw_i32_i64.c:3:29
	lw	a0, -48(s0)
	addiw	a0, a0, 1
	sw	a0, -48(s0)
	.loc	0 3 3 is_stmt 0                 # vector_addw_i32_i64.c:3:3
	j	.LBB0_1
.Ltmp5:
.LBB0_4:                                # %for.end
	.loc	0 6 1 epilogue_begin is_stmt 1  # vector_addw_i32_i64.c:6:1
	addi	sp, s0, -48
	.cfi_def_cfa sp, 48
	ld	ra, 40(sp)                      # 8-byte Folded Reload
	ld	s0, 32(sp)                      # 8-byte Folded Reload
	.cfi_restore ra
	.cfi_restore s0
	addi	sp, sp, 48
	.cfi_def_cfa_offset 0
	ret
.Ltmp6:
.Lfunc_end0:
	.size	test, .Lfunc_end0-test
	.cfi_endproc
                                        # -- End function
	.section	".note.GNU-stack","",@progbits
	.addrsig